target datalayout = "e-m:e-p270:32:32-p271:32:32-p272:64:64-i64:64-i128:128-f80:128-n8:16:32:64-S128"
target triple = "x86_64-pc-linux-gnu"

%struct.circ_state = type { %struct.blocklist_t, i32, i32, i32, i32, ptr, ptr, double }
%struct.blocklist_t = type { ptr, ptr }
%struct.block = type { ptr, ptr, ptr, double, double, %struct.nodelist_t, %struct.blocklist_t, double, i32 }
%struct.nodelist_t = type { ptr, i64, i64, i64 }
%struct.Agobj_s = type { %struct.Agtag_s, ptr }
%struct.Agtag_s = type { i32, i64 }
%struct.Agnodeinfo_t = type { %struct.Agrec_s, ptr, ptr, %struct.pointf_s, double, double, %struct.boxf, double, double, double, double, double, ptr, ptr, ptr, i8, i8, i8, i8, i32, i32, i32, ptr, double, i8, i8, ptr, ptr, i8, i64, i8, i8, i8, ptr, ptr, %struct.elist, %struct.elist, %struct.elist, %struct.elist, %struct.elist, ptr, i32, ptr, i32, i32, double, %struct.elist, %struct.elist, %struct.elist, %struct.elist, ptr, i32, i32, i32, [1 x double] }
%struct.Agrec_s = type { ptr, ptr }
%struct.pointf_s = type { double, double }
%struct.boxf = type { %struct.pointf_s, %struct.pointf_s }
%struct.elist = type { ptr, i64 }
%struct.cdata = type { %union.anon.0, i32, ptr, ptr, %union.anon.1 }
%union.anon.0 = type { ptr }
%union.anon.1 = type { %struct.anon.2 }
%struct.anon.2 = type { ptr, ptr, ptr, i32, i32 }
%struct.anon = type { ptr, i32, i32 }
%struct.estack_t = type { ptr, i64, i64, i64 }

@Verbose = external global i8, align 1
@stderr = external global ptr, align 8
@.str = private unnamed_addr constant [11 x i8] c"root = %s\0A\00", align 1

; Function Attrs: inlinehint nounwind uwtable
define internal void @estack_noop_(ptr noundef %0) #5 {
  %2 = alloca ptr, align 8
  store ptr %0, ptr %2, align 8, !tbaa !61
  ret void
}

; Function Attrs: inlinehint nounwind uwtable
define internal ptr @estack_get(ptr noundef %0, i64 noundef %1) #5 {
  %3 = alloca ptr, align 8
  %4 = alloca i64, align 8
  store ptr %0, ptr %3, align 8, !tbaa !8
  store i64 %1, ptr %4, align 8, !tbaa !83
  %5 = load ptr, ptr %3, align 8, !tbaa !8
  %6 = getelementptr inbounds nuw %struct.estack_t, ptr %5, i32 0, i32 0
  %7 = load ptr, ptr %6, align 8, !tbaa !79
  %8 = load ptr, ptr %3, align 8, !tbaa !8
  %9 = getelementptr inbounds nuw %struct.estack_t, ptr %8, i32 0, i32 1
  %10 = load i64, ptr %9, align 8, !tbaa !85
  %11 = load i64, ptr %4, align 8, !tbaa !83
  %12 = add i64 %10, %11
  %13 = load ptr, ptr %3, align 8, !tbaa !8
  %14 = getelementptr inbounds nuw %struct.estack_t, ptr %13, i32 0, i32 3
  %15 = load i64, ptr %14, align 8, !tbaa !82
  %16 = urem i64 %12, %15
  %17 = getelementptr inbounds nuw ptr, ptr %7, i64 %16
  %18 = load ptr, ptr %17, align 8, !tbaa !61
  ret ptr %18
}

; Function Attrs: inlinehint nounwind uwtable
define internal void @estack_clear(ptr noundef %0) #5 {
  %2 = alloca ptr, align 8
  %3 = alloca i64, align 8
  store ptr %0, ptr %2, align 8, !tbaa !8
  call void @llvm.lifetime.start.p0(i64 8, ptr %3) #12
  store i64 0, ptr %3, align 8, !tbaa !83
  br label %4

4:                                                ; preds = %18, %1
  %5 = load i64, ptr %3, align 8, !tbaa !83
  %6 = load ptr, ptr %2, align 8, !tbaa !8
  %7 = getelementptr inbounds nuw %struct.estack_t, ptr %6, i32 0, i32 2
  %8 = load i64, ptr %7, align 8, !tbaa !81
  %9 = icmp ult i64 %5, %8
  br i1 %9, label %11, label %10

10:                                               ; preds = %4
  call void @llvm.lifetime.end.p0(i64 8, ptr %3) #12
  br label %21

11:                                               ; preds = %4
  %12 = load ptr, ptr %2, align 8, !tbaa !8
  %13 = load i64, ptr %3, align 8, !tbaa !83
  %14 = call ptr @estack_get(ptr noundef %12, i64 noundef %13)
  call void @estack_noop_(ptr noundef %14)
  br label %15

15:                                               ; preds = %11
  br label %16

16:                                               ; preds = %15
  br label %17

17:                                               ; preds = %16
  br label %18

18:                                               ; preds = %17
  %19 = load i64, ptr %3, align 8, !tbaa !83
  %20 = add i64 %19, 1
  store i64 %20, ptr %3, align 8, !tbaa !83
  br label %4, !llvm.loop !90

21:                                               ; preds = %10
  %22 = load ptr, ptr %2, align 8, !tbaa !8
  %23 = getelementptr inbounds nuw %struct.estack_t, ptr %22, i32 0, i32 2
  store i64 0, ptr %23, align 8, !tbaa !81
  %24 = load ptr, ptr %2, align 8, !tbaa !8
  %25 = getelementptr inbounds nuw %struct.estack_t, ptr %24, i32 0, i32 1
  store i64 0, ptr %25, align 8, !tbaa !85
  ret void
}

; Function Attrs: inlinehint nounwind uwtable
define internal void @estack_free(ptr noundef %0) #5 {
  %2 = alloca ptr, align 8
  store ptr %0, ptr %2, align 8, !tbaa !8
  %3 = load ptr, ptr %2, align 8, !tbaa !8
  call void @estack_clear(ptr noundef %3)
  %4 = load ptr, ptr %2, align 8, !tbaa !8
  %5 = getelementptr inbounds nuw %struct.estack_t, ptr %4, i32 0, i32 0
  %6 = load ptr, ptr %5, align 8, !tbaa !79
  call void @free(ptr noundef %6) #12
  %7 = load ptr, ptr %2, align 8, !tbaa !8
  call void @llvm.memset.p0.i64(ptr align 8 %7, i8 0, i64 32, i1 false)
  ret void
}

; Function Attrs: nounwind uwtable
define internal void @find_blocks(ptr noundef %0, ptr noundef %1) #0 {
  %3 = alloca ptr, align 8
  %4 = alloca ptr, align 8
  %5 = alloca ptr, align 8
  %6 = alloca ptr, align 8
  %7 = alloca i32, align 4
  %8 = alloca %struct.estack_t, align 8
  store ptr %0, ptr %3, align 8, !tbaa !3
  store ptr %1, ptr %4, align 8, !tbaa !8
  call void @llvm.lifetime.start.p0(i64 8, ptr %5) #12
  store ptr null, ptr %5, align 8, !tbaa !25
  %9 = load ptr, ptr %4, align 8, !tbaa !8
  %10 = getelementptr inbounds nuw %struct.circ_state, ptr %9, i32 0, i32 6
  %11 = load ptr, ptr %10, align 8, !tbaa !52
  %12 = icmp ne ptr %11, null
  br i1 %12, label %13, label %19

13:                                               ; preds = %2
  %14 = load ptr, ptr %3, align 8, !tbaa !3
  %15 = load ptr, ptr %4, align 8, !tbaa !8
  %16 = getelementptr inbounds nuw %struct.circ_state, ptr %15, i32 0, i32 6
  %17 = load ptr, ptr %16, align 8, !tbaa !52
  %18 = call ptr @agnode(ptr noundef %14, ptr noundef %17, i32 noundef 0)
  store ptr %18, ptr %5, align 8, !tbaa !25
  br label %19

19:                                               ; preds = %13, %2
  %20 = load ptr, ptr %5, align 8, !tbaa !25
  %21 = icmp ne ptr %20, null
  br i1 %21, label %55, label %22

22:                                               ; preds = %19
  %23 = load ptr, ptr %4, align 8, !tbaa !8
  %24 = getelementptr inbounds nuw %struct.circ_state, ptr %23, i32 0, i32 5
  %25 = load ptr, ptr %24, align 8, !tbaa !53
  %26 = icmp ne ptr %25, null
  br i1 %26, label %27, label %55

27:                                               ; preds = %22
  call void @llvm.lifetime.start.p0(i64 8, ptr %6) #12
  %28 = load ptr, ptr %3, align 8, !tbaa !3
  %29 = call ptr @agfstnode(ptr noundef %28)
  store ptr %29, ptr %6, align 8, !tbaa !25
  br label %30

30:                                               ; preds = %49, %27
  %31 = load ptr, ptr %6, align 8, !tbaa !25
  %32 = icmp ne ptr %31, null
  br i1 %32, label %34, label %33

33:                                               ; preds = %30
  store i32 2, ptr %7, align 4
  br label %53

34:                                               ; preds = %30
  %35 = load ptr, ptr %6, align 8, !tbaa !25
  %36 = getelementptr inbounds nuw %struct.Agobj_s, ptr %35, i32 0, i32 1
  %37 = load ptr, ptr %36, align 8, !tbaa !26
  %38 = getelementptr inbounds nuw %struct.Agnodeinfo_t, ptr %37, i32 0, i32 14
  %39 = load ptr, ptr %38, align 8, !tbaa !30
  %40 = getelementptr inbounds nuw %struct.cdata, ptr %39, i32 0, i32 0
  %41 = load ptr, ptr %40, align 8, !tbaa !42
  %42 = load ptr, ptr %4, align 8, !tbaa !8
  %43 = getelementptr inbounds nuw %struct.circ_state, ptr %42, i32 0, i32 5
  %44 = load ptr, ptr %43, align 8, !tbaa !53
  %45 = call zeroext i1 @late_bool(ptr noundef %41, ptr noundef %44, i1 noundef zeroext false)
  br i1 %45, label %46, label %48

46:                                               ; preds = %34
  %47 = load ptr, ptr %6, align 8, !tbaa !25
  store ptr %47, ptr %5, align 8, !tbaa !25
  store i32 2, ptr %7, align 4
  br label %53

48:                                               ; preds = %34
  br label %49

49:                                               ; preds = %48
  %50 = load ptr, ptr %3, align 8, !tbaa !3
  %51 = load ptr, ptr %6, align 8, !tbaa !25
  %52 = call ptr @agnxtnode(ptr noundef %50, ptr noundef %51)
  store ptr %52, ptr %6, align 8, !tbaa !25
  br label %30, !llvm.loop !54

53:                                               ; preds = %46, %33
  call void @llvm.lifetime.end.p0(i64 8, ptr %6) #12
  br label %54

54:                                               ; preds = %53
  br label %55

55:                                               ; preds = %54, %22, %19
  %56 = load ptr, ptr %5, align 8, !tbaa !25
  %57 = icmp ne ptr %56, null
  br i1 %57, label %61, label %58

58:                                               ; preds = %55
  %59 = load ptr, ptr %3, align 8, !tbaa !3
  %60 = call ptr @agfstnode(ptr noundef %59)
  store ptr %60, ptr %5, align 8, !tbaa !25
  br label %61

61:                                               ; preds = %58, %55
  %62 = load i8, ptr @Verbose, align 1, !tbaa !42
  %63 = icmp ne i8 %62, 0
  br i1 %63, label %64, label %69

64:                                               ; preds = %61
  %65 = load ptr, ptr @stderr, align 8, !tbaa !55
  %66 = load ptr, ptr %5, align 8, !tbaa !25
  %67 = call ptr @agnameof(ptr noundef %66)
  %68 = call i32 (ptr, ptr, ...) @fprintf(ptr noundef %65, ptr noundef @.str, ptr noundef %67) #12
  br label %69

69:                                               ; preds = %64, %61
  call void @llvm.lifetime.start.p0(i64 32, ptr %8) #12
  call void @llvm.memset.p0.i64(ptr align 8 %8, i8 0, i64 32, i1 false)
  %70 = load ptr, ptr %3, align 8, !tbaa !3
  %71 = load ptr, ptr %5, align 8, !tbaa !25
  %72 = load ptr, ptr %4, align 8, !tbaa !8
  call void @dfs(ptr noundef %70, ptr noundef %71, ptr noundef %72, i1 noundef zeroext true, ptr noundef %8)
  call void @estack_free(ptr noundef %8)
  call void @llvm.lifetime.end.p0(i64 32, ptr %8) #12
  call void @llvm.lifetime.end.p0(i64 8, ptr %5) #12
  ret void
}

; Function Attrs: nounwind uwtable
define ptr @createBlocktree(ptr noundef %0, ptr noundef %1) #0 {
  %3 = alloca ptr, align 8
  %4 = alloca ptr, align 8
  %5 = alloca ptr, align 8
  %6 = alloca ptr, align 8
  %7 = alloca ptr, align 8
  %8 = alloca ptr, align 8
  %9 = alloca ptr, align 8
  %10 = alloca ptr, align 8
  %11 = alloca ptr, align 8
  %12 = alloca i32, align 4
  store ptr %0, ptr %3, align 8, !tbaa !3
  store ptr %1, ptr %4, align 8, !tbaa !8
  call void @llvm.lifetime.start.p0(i64 8, ptr %5) #12
  %13 = load ptr, ptr %3, align 8, !tbaa !3
  %14 = load ptr, ptr %4, align 8, !tbaa !8
  call void @find_blocks(ptr noundef %13, ptr noundef %14)
  call void @llvm.lifetime.start.p0(i64 8, ptr %6) #12
  %15 = load ptr, ptr %4, align 8, !tbaa !8
  %16 = getelementptr inbounds nuw %struct.circ_state, ptr %15, i32 0, i32 0
  %17 = getelementptr inbounds nuw %struct.blocklist_t, ptr %16, i32 0, i32 0
  %18 = load ptr, ptr %17, align 8, !tbaa !9
  store ptr %18, ptr %6, align 8, !tbaa !17
  call void @llvm.lifetime.start.p0(i64 8, ptr %7) #12
  %19 = load ptr, ptr %6, align 8, !tbaa !17
  store ptr %19, ptr %7, align 8, !tbaa !17
  %20 = load ptr, ptr %6, align 8, !tbaa !17
  %21 = getelementptr inbounds nuw %struct.block, ptr %20, i32 0, i32 1
  %22 = load ptr, ptr %21, align 8, !tbaa !18
  store ptr %22, ptr %6, align 8, !tbaa !17
  br label %23

23:                                               ; preds = %110, %2
  %24 = load ptr, ptr %6, align 8, !tbaa !17
  %25 = icmp ne ptr %24, null
  br i1 %25, label %26, label %112

26:                                               ; preds = %23
  call void @llvm.lifetime.start.p0(i64 8, ptr %8) #12
  call void @llvm.lifetime.start.p0(i64 8, ptr %9) #12
  call void @llvm.lifetime.start.p0(i64 8, ptr %10) #12
  call void @llvm.lifetime.start.p0(i64 8, ptr %11) #12
  %27 = load ptr, ptr %6, align 8, !tbaa !17
  %28 = getelementptr inbounds nuw %struct.block, ptr %27, i32 0, i32 2
  %29 = load ptr, ptr %28, align 8, !tbaa !24
  store ptr %29, ptr %11, align 8, !tbaa !3
  %30 = load ptr, ptr %11, align 8, !tbaa !3
  %31 = call ptr @agfstnode(ptr noundef %30)
  store ptr %31, ptr %8, align 8, !tbaa !25
  store ptr %31, ptr %10, align 8, !tbaa !25
  call void @llvm.lifetime.start.p0(i64 4, ptr %12) #12
  %32 = load ptr, ptr %8, align 8, !tbaa !25
  %33 = getelementptr inbounds nuw %struct.Agobj_s, ptr %32, i32 0, i32 1
  %34 = load ptr, ptr %33, align 8, !tbaa !26
  %35 = getelementptr inbounds nuw %struct.Agnodeinfo_t, ptr %34, i32 0, i32 14
  %36 = load ptr, ptr %35, align 8, !tbaa !30
  %37 = getelementptr inbounds nuw %struct.cdata, ptr %36, i32 0, i32 4
  %38 = getelementptr inbounds nuw %struct.anon, ptr %37, i32 0, i32 1
  %39 = load i32, ptr %38, align 8, !tbaa !42
  store i32 %39, ptr %12, align 4, !tbaa !43
  %40 = load ptr, ptr %8, align 8, !tbaa !25
  %41 = getelementptr inbounds nuw %struct.Agobj_s, ptr %40, i32 0, i32 1
  %42 = load ptr, ptr %41, align 8, !tbaa !26
  %43 = getelementptr inbounds nuw %struct.Agnodeinfo_t, ptr %42, i32 0, i32 14
  %44 = load ptr, ptr %43, align 8, !tbaa !30
  %45 = getelementptr inbounds nuw %struct.cdata, ptr %44, i32 0, i32 2
  %46 = load ptr, ptr %45, align 8, !tbaa !44
  store ptr %46, ptr %9, align 8, !tbaa !25
  %47 = load ptr, ptr %11, align 8, !tbaa !3
  %48 = load ptr, ptr %8, align 8, !tbaa !25
  %49 = call ptr @agnxtnode(ptr noundef %47, ptr noundef %48)
  store ptr %49, ptr %8, align 8, !tbaa !25
  br label %50

50:                                               ; preds = %82, %26
  %51 = load ptr, ptr %8, align 8, !tbaa !25
  %52 = icmp ne ptr %51, null
  br i1 %52, label %53, label %86

53:                                               ; preds = %50
  %54 = load ptr, ptr %8, align 8, !tbaa !25
  %55 = getelementptr inbounds nuw %struct.Agobj_s, ptr %54, i32 0, i32 1
  %56 = load ptr, ptr %55, align 8, !tbaa !26
  %57 = getelementptr inbounds nuw %struct.Agnodeinfo_t, ptr %56, i32 0, i32 14
  %58 = load ptr, ptr %57, align 8, !tbaa !30
  %59 = getelementptr inbounds nuw %struct.cdata, ptr %58, i32 0, i32 4
  %60 = getelementptr inbounds nuw %struct.anon, ptr %59, i32 0, i32 1
  %61 = load i32, ptr %60, align 8, !tbaa !42
  %62 = load i32, ptr %12, align 4, !tbaa !43
  %63 = icmp slt i32 %61, %62
  br i1 %63, label %64, label %81

64:                                               ; preds = %53
  %65 = load ptr, ptr %8, align 8, !tbaa !25
  store ptr %65, ptr %10, align 8, !tbaa !25
  %66 = load ptr, ptr %8, align 8, !tbaa !25
  %67 = getelementptr inbounds nuw %struct.Agobj_s, ptr %66, i32 0, i32 1
  %68 = load ptr, ptr %67, align 8, !tbaa !26
  %69 = getelementptr inbounds nuw %struct.Agnodeinfo_t, ptr %68, i32 0, i32 14
  %70 = load ptr, ptr %69, align 8, !tbaa !30
  %71 = getelementptr inbounds nuw %struct.cdata, ptr %70, i32 0, i32 4
  %72 = getelementptr inbounds nuw %struct.anon, ptr %71, i32 0, i32 1
  %73 = load i32, ptr %72, align 8, !tbaa !42
  store i32 %73, ptr %12, align 4, !tbaa !43
  %74 = load ptr, ptr %8, align 8, !tbaa !25
  %75 = getelementptr inbounds nuw %struct.Agobj_s, ptr %74, i32 0, i32 1
  %76 = load ptr, ptr %75, align 8, !tbaa !26
  %77 = getelementptr inbounds nuw %struct.Agnodeinfo_t, ptr %76, i32 0, i32 14
  %78 = load ptr, ptr %77, align 8, !tbaa !30
  %79 = getelementptr inbounds nuw %struct.cdata, ptr %78, i32 0, i32 2
  %80 = load ptr, ptr %79, align 8, !tbaa !44
  store ptr %80, ptr %9, align 8, !tbaa !25
  br label %81

81:                                               ; preds = %64, %53
  br label %82

82:                                               ; preds = %81
  %83 = load ptr, ptr %11, align 8, !tbaa !3
  %84 = load ptr, ptr %8, align 8, !tbaa !25
  %85 = call ptr @agnxtnode(ptr noundef %83, ptr noundef %84)
  store ptr %85, ptr %8, align 8, !tbaa !25
  br label %50, !llvm.loop !46

86:                                               ; preds = %50
  %87 = load ptr, ptr %9, align 8, !tbaa !25
  %88 = getelementptr inbounds nuw %struct.Agobj_s, ptr %87, i32 0, i32 1
  %89 = load ptr, ptr %88, align 8, !tbaa !26
  %90 = getelementptr inbounds nuw %struct.Agnodeinfo_t, ptr %89, i32 0, i32 14
  %91 = load ptr, ptr %90, align 8, !tbaa !30
  %92 = getelementptr inbounds nuw %struct.cdata, ptr %91, i32 0, i32 1
  %93 = load i32, ptr %92, align 8, !tbaa !48
  %94 = or i32 %93, 8
  store i32 %94, ptr %92, align 8, !tbaa !48
  %95 = load ptr, ptr %10, align 8, !tbaa !25
  %96 = load ptr, ptr %6, align 8, !tbaa !17
  %97 = getelementptr inbounds nuw %struct.block, ptr %96, i32 0, i32 0
  store ptr %95, ptr %97, align 8, !tbaa !49
  %98 = load ptr, ptr %6, align 8, !tbaa !17
  %99 = getelementptr inbounds nuw %struct.block, ptr %98, i32 0, i32 1
  %100 = load ptr, ptr %99, align 8, !tbaa !18
  store ptr %100, ptr %5, align 8, !tbaa !17
  %101 = load ptr, ptr %9, align 8, !tbaa !25
  %102 = getelementptr inbounds nuw %struct.Agobj_s, ptr %101, i32 0, i32 1
  %103 = load ptr, ptr %102, align 8, !tbaa !26
  %104 = getelementptr inbounds nuw %struct.Agnodeinfo_t, ptr %103, i32 0, i32 14
  %105 = load ptr, ptr %104, align 8, !tbaa !30
  %106 = getelementptr inbounds nuw %struct.cdata, ptr %105, i32 0, i32 3
  %107 = load ptr, ptr %106, align 8, !tbaa !50
  %108 = getelementptr inbounds nuw %struct.block, ptr %107, i32 0, i32 6
  %109 = load ptr, ptr %6, align 8, !tbaa !17
  call void @appendBlock(ptr noundef %108, ptr noundef %109)
  call void @llvm.lifetime.end.p0(i64 4, ptr %12) #12
  call void @llvm.lifetime.end.p0(i64 8, ptr %11) #12
  call void @llvm.lifetime.end.p0(i64 8, ptr %10) #12
  call void @llvm.lifetime.end.p0(i64 8, ptr %9) #12
  call void @llvm.lifetime.end.p0(i64 8, ptr %8) #12
  br label %110

110:                                              ; preds = %86
  %111 = load ptr, ptr %5, align 8, !tbaa !17
  store ptr %111, ptr %6, align 8, !tbaa !17
  br label %23, !llvm.loop !51

112:                                              ; preds = %23
  %113 = load ptr, ptr %4, align 8, !tbaa !8
  %114 = getelementptr inbounds nuw %struct.circ_state, ptr %113, i32 0, i32 0
  call void @initBlocklist(ptr noundef %114)
  %115 = load ptr, ptr %7, align 8, !tbaa !17
  call void @llvm.lifetime.end.p0(i64 8, ptr %7) #12
  call void @llvm.lifetime.end.p0(i64 8, ptr %6) #12
  call void @llvm.lifetime.end.p0(i64 8, ptr %5) #12
  ret ptr %115
}