; Function Attrs: nounwind uwtable
define ptr @createBlocktree(ptr noundef %0, ptr noundef %1) local_unnamed_addr #0 {
  %3 = alloca %struct.estack_t, align 8
  %4 = getelementptr inbounds nuw i8, ptr %1, i64 40
  %5 = load ptr, ptr %4, align 8, !tbaa !3
  %.not.i = icmp eq ptr %5, null
  br i1 %.not.i, label %.thread.i, label %6

6:                                                ; preds = %2
  %7 = tail call ptr @agnode(ptr noundef %0, ptr noundef nonnull %5, i32 noundef 0) #15
  %.not20.i = icmp eq ptr %7, null
  br i1 %.not20.i, label %.thread.i, label %.loopexit30.i

.thread.i:                                        ; preds = %6, %2
  %8 = getelementptr inbounds nuw i8, ptr %1, i64 32
  %9 = load ptr, ptr %8, align 8, !tbaa !14
  %.not21.i = icmp eq ptr %9, null
  br i1 %.not21.i, label %.loopexit.i, label %10

10:                                               ; preds = %.thread.i
  %11 = tail call ptr @agfstnode(ptr noundef %0) #15
  %.not2232.i = icmp eq ptr %11, null
  br i1 %.not2232.i, label %.loopexit.i, label %.lr.ph.i

.lr.ph.i:                                         ; preds = %10, %19
  %.033.i = phi ptr [ %20, %19 ], [ %11, %10 ]
  %12 = getelementptr inbounds nuw i8, ptr %.033.i, i64 16
  %13 = load ptr, ptr %12, align 8, !tbaa !15
  %14 = getelementptr inbounds nuw i8, ptr %13, i64 152
  %15 = load ptr, ptr %14, align 8, !tbaa !20
  %16 = load ptr, ptr %15, align 8, !tbaa !34
  %17 = load ptr, ptr %8, align 8, !tbaa !14
  %18 = tail call zeroext i1 @late_bool(ptr noundef %16, ptr noundef %17, i1 noundef zeroext false) #15
  br i1 %18, label %.loopexit30.i, label %19

19:                                               ; preds = %.lr.ph.i
  %20 = tail call ptr @agnxtnode(ptr noundef %0, ptr noundef nonnull %.033.i) #15
  %.not22.i = icmp eq ptr %20, null
  br i1 %.not22.i, label %.loopexit.i, label %.lr.ph.i, !llvm.loop !35

.loopexit.i:                                      ; preds = %19, %10, %.thread.i
  %21 = tail call ptr @agfstnode(ptr noundef %0) #15
  br label %.loopexit30.i

.loopexit30.i:                                    ; preds = %.lr.ph.i, %.loopexit.i, %6
  %.3.i = phi ptr [ %21, %.loopexit.i ], [ %7, %6 ], [ %.033.i, %.lr.ph.i ]
  %22 = load i8, ptr @Verbose, align 1, !tbaa !34
  %.not24.i = icmp eq i8 %22, 0
  br i1 %.not24.i, label %find_blocks.exit, label %23

23:                                               ; preds = %.loopexit30.i
  %24 = load ptr, ptr @stderr, align 8, !tbaa !37
  %25 = tail call ptr @agnameof(ptr noundef %.3.i) #15
  %26 = tail call i32 (ptr, ptr, ...) @fprintf(ptr noundef %24, ptr noundef nonnull @.str, ptr noundef %25) #16
  br label %find_blocks.exit

find_blocks.exit:                                 ; preds = %.loopexit30.i, %23
  call void @llvm.lifetime.start.p0(i64 32, ptr nonnull %3) #15
  call void @llvm.memset.p0.i64(ptr noundef nonnull align 8 dereferenceable(32) %3, i8 0, i64 32, i1 false)
  call fastcc void @dfs(ptr noundef %0, ptr noundef %.3.i, ptr noundef nonnull %1, i1 noundef zeroext true, ptr noundef %3)
  %27 = load ptr, ptr %3, align 8, !tbaa !39
  tail call void @free(ptr noundef %27) #15
  call void @llvm.lifetime.end.p0(i64 32, ptr nonnull %3) #15
  %28 = load ptr, ptr %1, align 8, !tbaa !41
  %29 = getelementptr inbounds nuw i8, ptr %28, i64 8
  %30 = load ptr, ptr %29, align 8, !tbaa !42
  %.not43 = icmp eq ptr %30, null
  br i1 %.not43, label %._crit_edge46, label %.lr.ph45

.lr.ph45:                                         ; preds = %find_blocks.exit, %._crit_edge
  %.02844 = phi ptr [ %63, %._crit_edge ], [ %30, %find_blocks.exit ]
  %31 = getelementptr inbounds nuw i8, ptr %.02844, i64 16
  %32 = load ptr, ptr %31, align 8, !tbaa !46
  %33 = tail call ptr @agfstnode(ptr noundef %32) #15
  %34 = getelementptr inbounds nuw i8, ptr %33, i64 16
  %35 = load ptr, ptr %34, align 8, !tbaa !15
  %36 = getelementptr inbounds nuw i8, ptr %35, i64 152
  %37 = load ptr, ptr %36, align 8, !tbaa !20
  %38 = getelementptr inbounds nuw i8, ptr %37, i64 40
  %39 = load i32, ptr %38, align 8, !tbaa !34
  %40 = getelementptr inbounds nuw i8, ptr %37, i64 16
  %41 = load ptr, ptr %40, align 8, !tbaa !47
  %42 = tail call ptr @agnxtnode(ptr noundef %32, ptr noundef %33) #15
  %.not3537 = icmp eq ptr %42, null
  br i1 %.not3537, label %._crit_edge, label %.lr.ph

.lr.ph:                                           ; preds = %.lr.ph45, %53
  %.041 = phi i32 [ %.1, %53 ], [ %39, %.lr.ph45 ]
  %.02940 = phi ptr [ %.130, %53 ], [ %33, %.lr.ph45 ]
  %.03139 = phi ptr [ %.132, %53 ], [ %41, %.lr.ph45 ]
  %.03338 = phi ptr [ %54, %53 ], [ %42, %.lr.ph45 ]
  %43 = getelementptr inbounds nuw i8, ptr %.03338, i64 16
  %44 = load ptr, ptr %43, align 8, !tbaa !15
  %45 = getelementptr inbounds nuw i8, ptr %44, i64 152
  %46 = load ptr, ptr %45, align 8, !tbaa !20
  %47 = getelementptr inbounds nuw i8, ptr %46, i64 40
  %48 = load i32, ptr %47, align 8, !tbaa !34
  %49 = icmp slt i32 %48, %.041
  br i1 %49, label %50, label %53

50:                                               ; preds = %.lr.ph
  %51 = getelementptr inbounds nuw i8, ptr %46, i64 16
  %52 = load ptr, ptr %51, align 8, !tbaa !47
  br label %53

53:                                               ; preds = %.lr.ph, %50
  %.132 = phi ptr [ %52, %50 ], [ %.03139, %.lr.ph ]
  %.130 = phi ptr [ %.03338, %50 ], [ %.02940, %.lr.ph ]
  %.1 = phi i32 [ %48, %50 ], [ %.041, %.lr.ph ]
  %54 = tail call ptr @agnxtnode(ptr noundef %32, ptr noundef nonnull %.03338) #15
  %.not35 = icmp eq ptr %54, null
  br i1 %.not35, label %._crit_edge, label %.lr.ph, !llvm.loop !49

._crit_edge:                                      ; preds = %53, %.lr.ph45
  %.031.lcssa = phi ptr [ %41, %.lr.ph45 ], [ %.132, %53 ]
  %.029.lcssa = phi ptr [ %33, %.lr.ph45 ], [ %.130, %53 ]
  %55 = getelementptr inbounds nuw i8, ptr %.031.lcssa, i64 16
  %56 = load ptr, ptr %55, align 8, !tbaa !15
  %57 = getelementptr inbounds nuw i8, ptr %56, i64 152
  %58 = load ptr, ptr %57, align 8, !tbaa !20
  %59 = getelementptr inbounds nuw i8, ptr %58, i64 8
  %60 = load i32, ptr %59, align 8, !tbaa !50
  %61 = or i32 %60, 8
  store i32 %61, ptr %59, align 8, !tbaa !50
  store ptr %.029.lcssa, ptr %.02844, align 8, !tbaa !51
  %62 = getelementptr inbounds nuw i8, ptr %.02844, i64 8
  %63 = load ptr, ptr %62, align 8, !tbaa !42
  %64 = getelementptr inbounds nuw i8, ptr %58, i64 24
  %65 = load ptr, ptr %64, align 8, !tbaa !52
  %66 = getelementptr inbounds nuw i8, ptr %65, i64 72
  tail call void @appendBlock(ptr noundef nonnull %66, ptr noundef nonnull %.02844) #15
  %.not = icmp eq ptr %63, null
  br i1 %.not, label %._crit_edge46, label %.lr.ph45, !llvm.loop !53

._crit_edge46:                                    ; preds = %._crit_edge, %find_blocks.exit
  tail call void @initBlocklist(ptr noundef nonnull %1) #15
  ret ptr %28
}